"File: main.c        Assembler  Version HGASM0202      Page 1


   1  0000              ; Generated by holtek-gcc v3.19, Sat Jun 04 15:38:48 2022
   2  0000              ; 
   3  0000              ; Configuration:
   4  0000              ;       with long instruction
   5  0000              ;       Single ROM, Multi-RAM
   6  0000              ;       bits_per_rom_unit:16
   7  0000              ;       with mp1
   8  0000              ;       with tbhp, address(0x9)
   9  0000              ;          Use tabrd-const
  10  0000              ;       
  11  0000              ; SFR address of long-instruction arch:
  12  0000              ;    mp0 = -1,1,0
  13  0000              ;    mp1 = 4,3,2
  14  0000              ;    mp2 = 14,13,12
  15  0000              ;    tbp = 9,7,8
  16  0000              ;    acc = 5
  17  0000              ;    pcl = 6
  18  0000              ;    status = 10
  19  0000              ;    bp = 11
  20  0000              ;    intc = 17
  21  0000              ;       
  22  0000              ;       
  23  0000              ; use 'tabrdc' instead of 'tabrd'
  24  0000              ;       
  25  0000              
  26  0000              #pragma translator "holtek-gcc 4.6.4" "3.19" "build 20130711"
  27  0000              ; Rebuild 718
  28  0000              
  29  0000              ir equ [2]
  30  0000              mp equ [3]
  31  0000              sbp equ [4]
  32  0000              acc equ [5]
  33  0000              bp equ [11]
  34  0000              tblp equ [7]
  35  0000              tbhp equ [9]
  36  0000              status equ [10]
  37  0000              c equ [10].0
  38  0000              ac equ [10].1
  39  0000              z equ [10].2
  40  0000              ov equ [10].3
  41  0000              cz equ [10].6
  42  0000              sc equ [10].7
  43  0000              intc equ [17]
  44  0000              
  45  0000              extern ra:byte
  46  0000              extern rb:byte
  47  0000              extern rc:byte
  48  0000              extern rd:byte
  49  0000              extern re:byte
  50  0000              extern rf:byte
  51  0000              extern rg:byte
  52  0000              extern rh:byte
  53  0000              extern _Crom2Prom:near
  54  0000              extern _Crom2PromNext:near
  55  0000              
  56  0000              RAMBANK 0 @BITDATASEC, @BITDATASEC1
  57  0000              @HCCINIT	.section 'data'
  58  0000              @HCCINIT0	.section 'data'
  59  0000              @BITDATASEC	 .section 'data'
"File: main.ASM      Assembler  Version HGASM0202      Page 2

  60  0000              @BITDATASEC1	 .section 'data'
  61  0000              
  62  0000              #pragma debug scope 1 1
  63  0000              	extern __DELAY3:near
  64  0000              	extern __DELAYX3:near
  65  0000              	extern __DELAYX6:near
  66  0000              	extern __DELAYY5:near
  67  0000              	extern __DELAYY3:near
  68  0000              	extern _builtin_holtek_delay_2:byte
  69  0000              public _convert_integer_to_string
  70  0000              #pragma debug scope 2 1

  48  0000              #line 48 "c:\users\user\documents\htk_project\3652_adc_test_master_1\main.c"
  48  0000              _convert_integer_to_string .section 'code'
  48  0000              _convert_integer_to_string proc
  48  0000              public _convert_integer_to_string_2
  48  0000  0006[           local _convert_integer_to_string_2 db 6 dup(?)	; 4,2
            00
            ]
  48  0006              #pragma debug pointer 42 7 2
  48  0006              #pragma debug pointer 42 7 2
  48  0006              #pragma debug variable 42 2 _convert_integer_to_string_2+0 "str"
  48  0006              #pragma debug variable 10 2 _convert_integer_to_string_2+2 "number"
  52  0006              #line 52 "c:\users\user\documents\htk_project\3652_adc_test_master_1\main.c"
  52  0000  0F01        	mov a,1
  52  0001  0080     E  	mov rf,a
  52  0002  1F00     E  	clr rg
  52  0003  0700     R  	mov a,_convert_integer_to_string_2[2]
  52  0004  0500     R  	or a,_convert_integer_to_string_2[3]
  52  0005  3D0A        	sz z
  52  0006  2800     R  	jmp _L2
  52  0007              #line 52 "c:\users\user\documents\htk_project\3652_adc_test_master_1\main.c"
  52  0007  1F00     E  	clr rf
  52  0008  1F00     E  	clr rg
  52  0009              _L2:
  50  0009              #line 50 "c:\users\user\documents\htk_project\3652_adc_test_master_1\main.c"
  50  0009  0700     R  	mov a,_convert_integer_to_string_2[2]
  50  000A  0080     E  	mov rb,a
  50  000B  0700     R  	mov a,_convert_integer_to_string_2[3]
  50  000C  0080     E  	mov rc,a
  50  000D  1F00     E  	clr rd
  50  000E  1F00     E  	clr re
  50  000F              _L3:
  50  000F  0700     E  	mov a,rf
  50  0010  0300     E  	add a,rd
  50  0011  0080     R  	mov _convert_integer_to_string_2[4],a
  50  0012  0700     E  	mov a,rg
  50  0013  1300     E  	adc a,re
  50  0014  0080     R  	mov _convert_integer_to_string_2[5],a
  50  0015  1480     E  	inc rd
  50  0016  3D0A        	sz z
  50  0017  1480     E  	inc re
  54  0018              #line 54 "c:\users\user\documents\htk_project\3652_adc_test_master_1\main.c"
  54  0018  0700     E  	mov a,rb
  54  0019  0500     E  	or a,rc
  54  001A  3D0A        	sz z
  54  001B  2800     R  	jmp _L8
  57  001C              #line 57 "c:\users\user\documents\htk_project\3652_adc_test_master_1\main.c"
  57  001C  1F00     E  	clr _builtin_holtek_udivmodhi4_2[6]
  57  001D  0700     E  	mov a,rb  
"File: main.c        Assembler  Version HGASM0202      Page 3

  57  001E  0080     E  	mov _builtin_holtek_udivmodhi4_2[0],a  
  57  001F  0700     E  	mov a,rc  
  57  0020  0080     E  	mov _builtin_holtek_udivmodhi4_2[1],a
  57  0021  0F0A        	mov a,10  
  57  0022  0080     E  	mov _builtin_holtek_udivmodhi4_2[2],a  
  57  0023  1F00     E  	clr _builtin_holtek_udivmodhi4_2[3]
  57  0024  2000     E  	call _builtin_holtek_udivmodhi4
  57  0025  0700     E  	mov a,_builtin_holtek_udivmodhi4_2[0]  
  57  0026  0080     E  	mov rb,a  
  57  0027  0700     E  	mov a,_builtin_holtek_udivmodhi4_2[1]  
  57  0028  0080     E  	mov rc,a
  57  0029  2800     R  	jmp _L3
  57  002A              _L8:
  54  002A              #line 54 "c:\users\user\documents\htk_project\3652_adc_test_master_1\main.c"
  54  002A  1F00     E  	clr rb
  54  002B  1F00     E  	clr rc
  54  002C              _L5:
  60  002C              #line 60 "c:\users\user\documents\htk_project\3652_adc_test_master_1\main.c"
  60  002C  0700     E  	mov a,rb
  60  002D  0200     R  	sub a,_convert_integer_to_string_2[4]
  60  002E  0700     E  	mov a,rc
  60  002F  1200     R  	sbc a,_convert_integer_to_string_2[5]
  60  0030  3F0A        	sz cz
  60  0031  2800     R  	jmp _L9
  62  0032              #line 62 "c:\users\user\documents\htk_project\3652_adc_test_master_1\main.c"
  62  0032  0700     R  	mov a,_convert_integer_to_string_2[2]
  62  0033  0080     E  	mov rd,a
  62  0034  0700     R  	mov a,_convert_integer_to_string_2[3]
  62  0035  0080     E  	mov re,a
  62  0036  1F00     E  	clr _builtin_holtek_udivmodhi4_2[6]
  62  0037  0700     E  	mov a,rd  
  62  0038  0080     E  	mov _builtin_holtek_udivmodhi4_2[0],a  
  62  0039  0700     E  	mov a,re  
  62  003A  0080     E  	mov _builtin_holtek_udivmodhi4_2[1],a
  62  003B  0F0A        	mov a,10  
  62  003C  0080     E  	mov _builtin_holtek_udivmodhi4_2[2],a  
  62  003D  1F00     E  	clr _builtin_holtek_udivmodhi4_2[3]
  62  003E  2000     E  	call _builtin_holtek_udivmodhi4
  62  003F  0700     E  	mov a,_builtin_holtek_udivmodhi4_2[4]  
  62  0040  0080     E  	mov rf,a  
  62  0041  0700     E  	mov a,_builtin_holtek_udivmodhi4_2[5]  
  62  0042  0080     E  	mov rg,a
  63  0043              #line 63 "c:\users\user\documents\htk_project\3652_adc_test_master_1\main.c"
  63  0043  1F00     E  	clr _builtin_holtek_udivmodhi4_2[6]
  63  0044  0700     E  	mov a,rd  
  63  0045  0080     E  	mov _builtin_holtek_udivmodhi4_2[0],a  
  63  0046  0700     E  	mov a,re  
  63  0047  0080     E  	mov _builtin_holtek_udivmodhi4_2[1],a
  63  0048  0F0A        	mov a,10  
  63  0049  0080     E  	mov _builtin_holtek_udivmodhi4_2[2],a  
  63  004A  1F00     E  	clr _builtin_holtek_udivmodhi4_2[3]
  63  004B  2000     E  	call _builtin_holtek_udivmodhi4
  63  004C  0700     E  	mov a,_builtin_holtek_udivmodhi4_2[0]  
  63  004D  0080     R  	mov _convert_integer_to_string_2[2],a  
  63  004E  0700     E  	mov a,_builtin_holtek_udivmodhi4_2[1]  
  63  004F  0080     R  	mov _convert_integer_to_string_2[3],a
  63  0050  0700     R  	mov a,_convert_integer_to_string_2[4]
  63  0051  0300     R  	add a,_convert_integer_to_string_2[0]
  63  0052  0080     E  	mov rd,a
  63  0053  0700     R  	mov a,_convert_integer_to_string_2[5]
"File: main.c        Assembler  Version HGASM0202      Page 4

  63  0054  1300     R  	adc a,_convert_integer_to_string_2[1]
  63  0055  0080     E  	mov re,a
  63  0056  0700     E  	mov a,rd
  63  0057  0200     E  	sub a,rb
  63  0058  0080     E  	mov rd,a
  63  0059  0700     E  	mov a,re
  63  005A  1200     E  	sbc a,rc
  63  005B  0080     E  	mov re,a
  64  005C              #line 64 "c:\users\user\documents\htk_project\3652_adc_test_master_1\main.c"
  64  005C  0F30        	mov a,48
  64  005D  0380     E  	addm a,rf
  64  005E  0FFF        	mov a,255
  64  005F  0300     E  	add a,rd
  64  0060  0083        	mov mp,a
  64  0061  0FFF        	mov a,255
  64  0062  1300     E  	adc a,re
  64  0063  0084        	mov sbp,a
  64  0064  0700     E  	mov a,rf
  64  0065  0082        	mov ir,a
  60  0066              #line 60 "c:\users\user\documents\htk_project\3652_adc_test_master_1\main.c"
  60  0066  1480     E  	inc rb
  60  0067  3D0A        	sz z
  60  0068  1480     E  	inc rc
  60  0069  2800     R  	jmp _L5
  60  006A              _L9:
  66  006A              #line 66 "c:\users\user\documents\htk_project\3652_adc_test_master_1\main.c"
  66  006A  0700     E  	mov a,rb
  66  006B  0300     R  	add a,_convert_integer_to_string_2[0]
  66  006C  0083        	mov mp,a
  66  006D  0700     E  	mov a,rc
  66  006E  1300     R  	adc a,_convert_integer_to_string_2[1]
  66  006F  0084        	mov sbp,a
  66  0070  0F00        	mov a,0
  66  0071  0082        	mov ir,a
  66  0072  0003        	ret
  66  0073              _convert_integer_to_string endp
  66  0073              #line 66 "c:\users\user\documents\htk_project\3652_adc_test_master_1\main.c"
  66  0073              #pragma debug scope 1 1
  66  0073              public _delay
  66  0073              #pragma debug scope 3 1
  82  0073              #line 82 "c:\users\user\documents\htk_project\3652_adc_test_master_1\main.c"
  82  0000              _delay .section 'code'
  82  0000              _delay proc
  82  0000              public _delay_2
  82  0000  0002[           local _delay_2 db 2 dup(?)	; 2,0
            00
            ]
  82  0002              #pragma debug variable 10 3 _delay_2+0 "time"
  86  0002              #line 86 "c:\users\user\documents\htk_project\3652_adc_test_master_1\main.c"
  86  0000  1F00     E  	clr rb
  86  0001  1F00     E  	clr rc
  86  0002              _L11:
  86  0002              #line 86 "c:\users\user\documents\htk_project\3652_adc_test_master_1\main.c"
  86  0002  0700     E  	mov a,rb
  86  0003  0200     R  	sub a,_delay_2[0]
  86  0004  0700     E  	mov a,rc
  86  0005  1200     R  	sbc a,_delay_2[1]
  86  0006  3F0A        	sz cz
  86  0007  2800     R  	jmp _L10
  86  0008  0F05        	mov a,5
"File: main.c        Assembler  Version HGASM0202      Page 5

  86  0009  0080     E  	mov ra,a
  86  000A              _L16:
  82  000A              #line 82 "c:\users\user\documents\htk_project\3652_adc_test_master_1\main.c"
  82  000A  0F66        	mov a,102
  82  000B  0080     E  	mov rd,a
  82  000C              _L14:
  90  000C              #line 90 "c:\users\user\documents\htk_project\3652_adc_test_master_1\main.c"
  90  000C              ;# 90 "c:\users\user\documents\htk_project\3652_adc_test_master_1\main.c" 1
  90  000C  0000        	nop
  90  000D  1780     E  	sdz rd
  90  000E  2800     R  	jmp _L14
  90  000F  1780     E  	sdz ra
  90  0010  2800     R  	jmp _L16
  86  0011              #line 86 "c:\users\user\documents\htk_project\3652_adc_test_master_1\main.c"
  86  0011  1480     E  	inc rb
  86  0012  3D0A        	sz z
  86  0013  1480     E  	inc rc
  86  0014  2800     R  	jmp _L11
  86  0015              _L10:
  86  0015  0003        	ret
  86  0016              _delay endp
  86  0016              #line 86 "c:\users\user\documents\htk_project\3652_adc_test_master_1\main.c"
  86  0016              #pragma debug scope 1 1
  86  0016              ___wdtc equ [26]
  86  0016              public _sysInit
  86  0016              #pragma debug scope 4 1
 108  0016              #line 108 "c:\users\user\documents\htk_project\3652_adc_test_master_1\main.c"
 108  0000              _sysInit .section 'code'
 108  0000              _sysInit proc
 109  0000              #line 109 "c:\users\user\documents\htk_project\3652_adc_test_master_1\main.c"
 109  0000  0FA8        	mov a,168
 109  0001  009A        	mov [26],a
 110  0002              #line 110 "c:\users\user\documents\htk_project\3652_adc_test_master_1\main.c"
 110  0002  2000     E  	call _uart_prot_init
 111  0003              #line 111 "c:\users\user\documents\htk_project\3652_adc_test_master_1\main.c"
 111  0003  0F64        	mov a,100
 111  0004  0080     R  	mov _delay_2[0],a
 111  0005  1F00     R  	clr _delay_2[1]
 111  0006  2000     R  	call _delay
 112  0007              #line 112 "c:\users\user\documents\htk_project\3652_adc_test_master_1\main.c"
 112  0007  2000     E  	call _adc_init
 113  0008              #line 113 "c:\users\user\documents\htk_project\3652_adc_test_master_1\main.c"
 113  0008  2000     E  	call _IIC_Init
 114  0009              #line 114 "c:\users\user\documents\htk_project\3652_adc_test_master_1\main.c"
 114  0009  2000     E  	call _ktd_en
 115  000A              #line 115 "c:\users\user\documents\htk_project\3652_adc_test_master_1\main.c"
 115  000A  2000     E  	call _ktd_clear
 116  000B              #line 116 "c:\users\user\documents\htk_project\3652_adc_test_master_1\main.c"
 116  000B  0F64        	mov a,100
 116  000C  0080     R  	mov _delay_2[0],a
 116  000D  1F00     R  	clr _delay_2[1]
 116  000E  2000     R  	call _delay
 117  000F              #line 117 "c:\users\user\documents\htk_project\3652_adc_test_master_1\main.c"
 117  000F  2000     E  	call _int_init
 118  0010              #line 118 "c:\users\user\documents\htk_project\3652_adc_test_master_1\main.c"
 118  0010  0FE8        	mov a,-24
 118  0011  0080     R  	mov _delay_2[0],a
 118  0012  0F03        	mov a,3
 118  0013  0080     R  	mov _delay_2[1],a
 118  0014  2000     R  	call _delay
"File: main.c        Assembler  Version HGASM0202      Page 6

 118  0015  0003        	ret
 118  0016              _sysInit endp
 118  0016              #line 118 "c:\users\user\documents\htk_project\3652_adc_test_master_1\main.c"
 118  0016              #pragma debug scope 1 1
 118  0016              ___pb equ [37]
 118  0000              @crom	.section 'crom'
 118  0000              _LC0:
 118  0000              	db 069h,06eh,020h,031h,035h,020h,06dh,06fh,064h,065h
 118  0005              	db 0ah,00h
 118  0006              @crom	.section 'crom'
 118  0006              _LC1:
 118  0006              	db 069h,06eh,020h,032h,030h,020h,06dh,06fh,064h,065h
 118  000B              	db 0ah,00h
 118  000C              @crom	.section 'crom'
 118  000C              _LC2:
 118  000C              	db 069h,06eh,020h,031h,030h,020h,06dh,06fh,064h,065h
 118  0011              	db 0ah,00h
 118  0012              public _sw0_status_check
 118  0012              #pragma debug scope 5 1
 219  0012              #line 219 "c:\users\user\documents\htk_project\3652_adc_test_master_1\main.c"
 219  0000              _sw0_status_check .section 'code'
 219  0000              _sw0_status_check proc
 220  0000              #line 220 "c:\users\user\documents\htk_project\3652_adc_test_master_1\main.c"
 220  0000  3825        	snz [37].0
 220  0001  2800     R  	jmp _L19
 220  0002              #line 220 "c:\users\user\documents\htk_project\3652_adc_test_master_1\main.c"
 220  0002  38A5        	snz [37].1
 220  0003  2800     R  	jmp _L19
 222  0004              #line 222 "c:\users\user\documents\htk_project\3652_adc_test_master_1\main.c"
 222  0004  0F00     R  	mov a,low offset _LC0
 222  0005  0080     E  	mov _uart_printf_2[0],a
 222  0006  0F00     R  	mov a,high offset _LC0
 222  0007  0080     E  	mov _uart_printf_2[1],a
 222  0008  2000     E  	call _uart_printf
 223  0009              #line 223 "c:\users\user\documents\htk_project\3652_adc_test_master_1\main.c"
 223  0009  0F0F        	mov a,15
 223  000A  0080     E  	mov _intF[3],a
 223  000B  2800     R  	jmp _L20
 223  000C              _L19:
 225  000C              #line 225 "c:\users\user\documents\htk_project\3652_adc_test_master_1\main.c"
 225  000C  3825        	snz [37].0
 225  000D  2800     R  	jmp _L21
 225  000E  3CA5        	sz [37].1
 225  000F  2800     R  	jmp _L21
 227  0010              #line 227 "c:\users\user\documents\htk_project\3652_adc_test_master_1\main.c"
 227  0010  0F00     R  	mov a,low offset _LC1
 227  0011  0080     E  	mov _uart_printf_2[0],a
 227  0012  0F00     R  	mov a,high offset _LC1
 227  0013  0080     E  	mov _uart_printf_2[1],a
 227  0014  2000     E  	call _uart_printf
 228  0015              #line 228 "c:\users\user\documents\htk_project\3652_adc_test_master_1\main.c"
 228  0015  0F14        	mov a,20
 228  0016  0080     E  	mov _intF[3],a
 228  0017  2800     R  	jmp _L20
 228  0018              _L21:
 230  0018              #line 230 "c:\users\user\documents\htk_project\3652_adc_test_master_1\main.c"
 230  0018  3C25        	sz [37].0
 230  0019  2800     R  	jmp _L22
 230  001A  0725        	mov a,[37]
 230  001B  0080     E  	mov ra,a
"File: main.c        Assembler  Version HGASM0202      Page 7

 230  001C              _L22:
 232  001C              #line 232 "c:\users\user\documents\htk_project\3652_adc_test_master_1\main.c"
 232  001C  0F00     R  	mov a,low offset _LC2
 232  001D  0080     E  	mov _uart_printf_2[0],a
 232  001E  0F00     R  	mov a,high offset _LC2
 232  001F  0080     E  	mov _uart_printf_2[1],a
 232  0020  2000     E  	call _uart_printf
 233  0021              #line 233 "c:\users\user\documents\htk_project\3652_adc_test_master_1\main.c"
 233  0021  0F0A        	mov a,10
 233  0022  0080     E  	mov _intF[3],a
 233  0023              _L20:
 240  0023              #line 240 "c:\users\user\documents\htk_project\3652_adc_test_master_1\main.c"
 240  0023  0F0A        	mov a,10
 240  0024  0080     R  	mov _delay_2[0],a
 240  0025  1F00     R  	clr _delay_2[1]
 240  0026  2000     R  	call _delay
 240  0027  0003        	ret
 240  0028              _sw0_status_check endp
 240  0028              #line 240 "c:\users\user\documents\htk_project\3652_adc_test_master_1\main.c"
 240  0028              #pragma debug scope 1 1
 240  0012              @crom	.section 'crom'
 240  0012              _LC3:
 240  0012              	db 046h,069h,06eh,073h,068h,065h,064h,0ah,00h
 240  0017              @crom	.section 'crom'
 240  0017              _LC4:
 240  0017              	db 053h,065h,06eh,064h,069h,06eh,067h,020h,041h,043h
 240  001C              	db 04bh,0ah,00h
 240  001D              @crom	.section 'crom'
 240  001D              _LC5:
 240  001D              	db 049h,06eh,073h,069h,065h,064h,020h,074h,068h,065h
 240  0022              	db 020h,021h,052h,058h,05fh,054h,058h,0ah,00h
 240  0027              @crom	.section 'crom'
 240  0027              _LC6:
 240  0027              	db 049h,06eh,073h,069h,064h,065h,020h,074h,068h,065h
 240  002C              	db 020h,04dh,066h,06ch,061h,067h,020h,06bh,065h,079h
 240  0031              	db 0ah,00h
 240  0032              public _main
 240  0032              #pragma debug scope 6 1
 122  0032              #line 122 "c:\users\user\documents\htk_project\3652_adc_test_master_1\main.c"
 122  0032              IFDEF WITH_DEFAULT_STARTUP
 122  0032              extern _main_initial0:near
 122  0032              extern _main_startup:near
 122  0032              ENDIF
 122  0032              
 122  0032              ROMBANK 0 @start
 122  0000              @start .section com_l 'code'
 122  0000              _main_startup1:
 122  0000              @start .section com_e 'code'
 122  0000  2800     R  	jmp _main
 122  0001              
 122  0000              _main .section 'code'
 122  0000              _main proc
 122  0000  00              local _main_2 db 1 dup(?)
 123  0001              #line 123 "c:\users\user\documents\htk_project\3652_adc_test_master_1\main.c"
 123  0000  2000     E  	call _Sys_init
 125  0001              #line 125 "c:\users\user\documents\htk_project\3652_adc_test_master_1\main.c"
 125  0001  2000     R  	call _sysInit
 127  0002              #line 127 "c:\users\user\documents\htk_project\3652_adc_test_master_1\main.c"
 127  0002  2000     E  	call _RF_Init
 128  0003              #line 128 "c:\users\user\documents\htk_project\3652_adc_test_master_1\main.c"
"File: main.c        Assembler  Version HGASM0202      Page 8

 128  0003  2000     E  	call _RF_Parameter_loading
 130  0004              #line 130 "c:\users\user\documents\htk_project\3652_adc_test_master_1\main.c"
 130  0004  0F05        	mov a,5
 130  0005  0080     E  	mov _BC3602_T[0],a
 134  0006              #line 134 "c:\users\user\documents\htk_project\3652_adc_test_master_1\main.c"
 134  0006  0F64        	mov a,100
 134  0007  0080     R  	mov _delay_2[0],a
 134  0008  1F00     R  	clr _delay_2[1]
 134  0009  2000     R  	call _delay
 134  000A              _L40:
 137  000A              #line 137 "c:\users\user\documents\htk_project\3652_adc_test_master_1\main.c"
 137  000A              ;# 137 "c:\users\user\documents\htk_project\3652_adc_test_master_1\main.c" 1
 137  000A  0001        	clr wdt
 144  000B              #line 144 "c:\users\user\documents\htk_project\3652_adc_test_master_1\main.c"
 144  000B  1E00     E  	snz _intF[2]
 144  000C  2800     R  	jmp _L33
 144  000D              #pragma debug scope 7 6
 144  000D              ;begin block, line: 144.-1
 144  000D              #pragma debug variable 8 7 _main_2+0 "i"
 146  000D              #line 146 "c:\users\user\documents\htk_project\3652_adc_test_master_1\main.c"
 146  000D  1F00     E  	clr _intF[2]
 147  000E              #line 147 "c:\users\user\documents\htk_project\3652_adc_test_master_1\main.c"
 147  000E  2000     E  	call _ktd_clear
 149  000F              #line 149 "c:\users\user\documents\htk_project\3652_adc_test_master_1\main.c"
 149  000F  2000     R  	call _sw0_status_check
 150  0010              #line 150 "c:\users\user\documents\htk_project\3652_adc_test_master_1\main.c"
 150  0010  0F0A        	mov a,10
 150  0011  0080     R  	mov _delay_2[0],a
 150  0012  1F00     R  	clr _delay_2[1]
 150  0013  2000     R  	call _delay
 151  0014              #line 151 "c:\users\user\documents\htk_project\3652_adc_test_master_1\main.c"
 151  0014  1F00     R  	clr _main_2[0]
 151  0015              _L34:
 151  0015  0700     R  	mov a,_main_2[0]
 151  0016  0200     E  	sub a,_intF[3]
 151  0017  3C0A        	sz c
 151  0018  2800     R  	jmp _L41
 153  0019              #line 153 "c:\users\user\documents\htk_project\3652_adc_test_master_1\main.c"
 153  0019  0FA8        	mov a,168
 153  001A  0080     E  	mov _ktd_rgb_ctrl_2[1],a
 153  001B  0F32        	mov a,50
 153  001C  0080     E  	mov _ktd_rgb_ctrl_2[0],a
 153  001D  0FA4        	mov a,164
 153  001E  2000     E  	call _ktd_rgb_ctrl
 154  001F              #line 154 "c:\users\user\documents\htk_project\3652_adc_test_master_1\main.c"
 154  001F  0FF4        	mov a,-12
 154  0020  0080     R  	mov _delay_2[0],a
 154  0021  0F01        	mov a,1
 154  0022  0080     R  	mov _delay_2[1],a
 154  0023  2000     R  	call _delay
 155  0024              #line 155 "c:\users\user\documents\htk_project\3652_adc_test_master_1\main.c"
 155  0024  2000     E  	call _ktd_clear
 156  0025              #line 156 "c:\users\user\documents\htk_project\3652_adc_test_master_1\main.c"
 156  0025  0FF4        	mov a,-12
 156  0026  0080     R  	mov _delay_2[0],a
 156  0027  0F01        	mov a,1
 156  0028  0080     R  	mov _delay_2[1],a
 156  0029  2000     R  	call _delay
 151  002A              #line 151 "c:\users\user\documents\htk_project\3652_adc_test_master_1\main.c"
 151  002A  1480     R  	inc _main_2[0]
"File: main.c        Assembler  Version HGASM0202      Page 9

 151  002B  2800     R  	jmp _L34
 151  002C              _L41:
 158  002C              #line 158 "c:\users\user\documents\htk_project\3652_adc_test_master_1\main.c"
 158  002C  0F00     R  	mov a,low offset _LC3
 158  002D  0080     E  	mov _uart_printf_2[0],a
 158  002E  0F00     R  	mov a,high offset _LC3
 158  002F  0080     E  	mov _uart_printf_2[1],a
 158  0030  2000     E  	call _uart_printf
 158  0031              _L33:
 158  0031              #pragma debug scope 6 1
 167  0031              #line 167 "c:\users\user\documents\htk_project\3652_adc_test_master_1\main.c"
 167  0031  1700     E  	sdza _intF[0]
 167  0032  2800     R  	jmp _L36
 169  0033              #line 169 "c:\users\user\documents\htk_project\3652_adc_test_master_1\main.c"
 169  0033  0F00     R  	mov a,low offset _LC4
 169  0034  0080     E  	mov _uart_printf_2[0],a
 169  0035  0F00     R  	mov a,high offset _LC4
 169  0036  0080     E  	mov _uart_printf_2[1],a
 169  0037  2000     E  	call _uart_printf
 170  0038              #line 170 "c:\users\user\documents\htk_project\3652_adc_test_master_1\main.c"
 170  0038  1F00     E  	clr _intF[0]
 172  0039              #line 172 "c:\users\user\documents\htk_project\3652_adc_test_master_1\main.c"
 172  0039  0700     E  	mov a,_BC3602_T[0]
 172  003A  0A04        	sub a,4
 172  003B  3D0A        	sz z
 172  003C  2800     R  	jmp _L37
 174  003D              #line 174 "c:\users\user\documents\htk_project\3652_adc_test_master_1\main.c"
 174  003D  0F00     R  	mov a,low offset _LC5
 174  003E  0080     E  	mov _uart_printf_2[0],a
 174  003F  0F00     R  	mov a,high offset _LC5
 174  0040  0080     E  	mov _uart_printf_2[1],a
 174  0041  2000     E  	call _uart_printf
 175  0042              #line 175 "c:\users\user\documents\htk_project\3652_adc_test_master_1\main.c"
 175  0042  0F01        	mov a,1
 175  0043  0080     E  	mov _Mflag[0],a
 176  0044              #line 176 "c:\users\user\documents\htk_project\3652_adc_test_master_1\main.c"
 176  0044  0F01        	mov a,1
 176  0045  2000     E  	call _KEY_Process
 176  0046              _L37:
 179  0046              #line 179 "c:\users\user\documents\htk_project\3652_adc_test_master_1\main.c"
 179  0046  0F00     R  	mov a,low offset _LC6
 179  0047  0080     E  	mov _uart_printf_2[0],a
 179  0048  0F00     R  	mov a,high offset _LC6
 179  0049  0080     E  	mov _uart_printf_2[1],a
 179  004A  2000     E  	call _uart_printf
 180  004B              #line 180 "c:\users\user\documents\htk_project\3652_adc_test_master_1\main.c"
 180  004B  1F00     E  	clr _Mflag[0]
 181  004C              #line 181 "c:\users\user\documents\htk_project\3652_adc_test_master_1\main.c"
 181  004C  1F00     E  	clr _intF[0]
 182  004D              #line 182 "c:\users\user\documents\htk_project\3652_adc_test_master_1\main.c"
 182  004D  0F01        	mov a,1
 182  004E  0080     E  	mov _intF[2],a
 183  004F              #line 183 "c:\users\user\documents\htk_project\3652_adc_test_master_1\main.c"
 183  004F  0F64        	mov a,100
 183  0050  0080     R  	mov _delay_2[0],a
 183  0051  1F00     R  	clr _delay_2[1]
 183  0052  2000     R  	call _delay
 183  0053              _L36:
 189  0053              #line 189 "c:\users\user\documents\htk_project\3652_adc_test_master_1\main.c"
 189  0053  0700     E  	mov a,_BC3602_T[0]
"File: main.c        Assembler  Version HGASM0202      Page 10

 189  0054  0A04        	sub a,4
 189  0055  390A        	snz z
 189  0056  2800     R  	jmp _L38
 190  0057              #line 190 "c:\users\user\documents\htk_project\3652_adc_test_master_1\main.c"
 190  0057  0F00     E  	mov a,low offset _BC3602_T
 190  0058  0080     E  	mov _SimpleFIFO_TX_Process_2[0],a
 190  0059  0F00     E  	mov a,high offset _BC3602_T
 190  005A  0080     E  	mov _SimpleFIFO_TX_Process_2[1],a
 190  005B  2000     E  	call _SimpleFIFO_TX_Process
 190  005C              _L38:
 192  005C              #line 192 "c:\users\user\documents\htk_project\3652_adc_test_master_1\main.c"
 192  005C  0700     E  	mov a,_BC3602_T[0]
 192  005D  0A05        	sub a,5
 192  005E  390A        	snz z
 192  005F  2800     R  	jmp _L39
 193  0060              #line 193 "c:\users\user\documents\htk_project\3652_adc_test_master_1\main.c"
 193  0060  0F00     E  	mov a,low offset _BC3602_T
 193  0061  0080     E  	mov _SimpleFIFO_RX_Process_2[0],a
 193  0062  0F00     E  	mov a,high offset _BC3602_T
 193  0063  0080     E  	mov _SimpleFIFO_RX_Process_2[1],a
 193  0064  2000     E  	call _SimpleFIFO_RX_Process
 193  0065              _L39:
 195  0065              #line 195 "c:\users\user\documents\htk_project\3652_adc_test_master_1\main.c"
 195  0065  0F00     E  	mov a,low offset _BC3602_T
 195  0066  0080     E  	mov _RF_Finished_Process_2[0],a
 195  0067  0F00     E  	mov a,high offset _BC3602_T
 195  0068  0080     E  	mov _RF_Finished_Process_2[1],a
 195  0069  2000     E  	call _RF_Finished_Process
 197  006A              #line 197 "c:\users\user\documents\htk_project\3652_adc_test_master_1\main.c"
 197  006A  2800     R  	jmp _L40
 197  006B  2800     R  	jmp $
 197  006C              _main endp
 197  006C              
 197  006C              @dummy endp
 197  006C              
 197  006C              #line 197 "c:\users\user\documents\htk_project\3652_adc_test_master_1\main.c"
 197  006C              #pragma debug scope 1 1
  31  006C              #line 31 "c:\users\user\documents\htk_project\3652_adc_test_master_1\main.c"
  31  006C              public _ADC_Value
  31  0000              @HCCINIT0_ADC_Value .section 'data'
  31  0000  0002[       _ADC_Value	db 2 dup(0)
            00
            ]
  31  0002              #pragma debug variable 10 1 _ADC_Value "ADC_Value"
  31  0002              
  31  0000              @HCCINIT .section 'data'
  29  0000              #line 29 "c:\users\user\documents\htk_project\3652_adc_test_master_1\main.c"
  29  0000              public _a
  29  0000              @HCCINIT0_a .section 'data'
  29  0000  0002[       _a	db 2 dup(0)
            00
            ]
  29  0002              #pragma debug pointer 43 7 1
  29  0002              #pragma debug pointer 43 7 1
  29  0002              #pragma debug variable 43 1 _a "a"
  29  0002              
  29  0000              @HCCINIT .section 'data'
  29  0000              #pragma debug struct_end
  29  0000              #pragma debug struct_end
  29  0000              #pragma debug union_end
"File: main.c        Assembler  Version HGASM0202      Page 11

  29  0000              #pragma debug union_end
  29  0000              #pragma debug variable 45 1 ___wdtc "__wdtc" 1
  29  0000              #pragma debug struct_end
  29  0000              #pragma debug struct_end
  29  0000              #pragma debug union_end
  29  0000              #pragma debug union_end
  29  0000              #pragma debug variable 47 1 ___pb "__pb" 1
  29  0000              
  29  0000              ; output external variables
  29  0000              extern _Mflag:byte
  29  0000              extern _BC3602_T:byte
  29  0000              extern _intF:byte
 122  0000              #line 122 "c:\users\user\documents\htk_project\3652_adc_test_master_1\main.c"
 122  0000              @code .section at 0 'code'
 122  0000  2800     R  	jmp _main_startup1
 122  0001              
 122  0001              extern _builtin_holtek_udivmodhi4_2:byte
 122  0001              extern _builtin_holtek_udivmodhi4:near
 122  0001              extern _uart_prot_init:near
 122  0001              extern _adc_init:near
 122  0001              extern _IIC_Init:near
 122  0001              extern _ktd_en:near
 122  0001              extern _ktd_clear:near
 122  0001              extern _int_init:near
 122  0001              extern _uart_printf_2:byte
 122  0001              extern _uart_printf:near
 122  0001              extern _Sys_init:near
 122  0001              extern _RF_Init:near
 122  0001              extern _RF_Parameter_loading:near
 122  0001              extern _ktd_rgb_ctrl_2:byte
 122  0001              extern _ktd_rgb_ctrl:near
 122  0001              extern _KEY_Process:near
 122  0001              extern _SimpleFIFO_TX_Process_2:byte
 122  0001              extern _SimpleFIFO_TX_Process:near
 122  0001              extern _SimpleFIFO_RX_Process_2:byte
 122  0001              extern _SimpleFIFO_RX_Process:near
 122  0001              extern _RF_Finished_Process_2:byte
 122  0001              extern _RF_Finished_Process:near
 122  0001              
 122  0001              ; 
 122  0001              ; Generated by holtek-gcc v3.19, Sat Jun 04 15:38:48 2022
 122  0001              ; Rebuild 718
 122  0001              ; end of file


        0 Errors, 0